target datalayout = "e-m:e-p270:32:32-p271:32:32-p272:64:64-i64:64-i128:128-f80:128-n8:16:32:64-S128"
target triple = "x86_64-pc-linux-gnu"

%struct.bz_stream = type { ptr, i32, i32, i32, ptr, i32, i32, i32, ptr, ptr, ptr, ptr }
%struct.bzFile = type { ptr, [5000 x i8], i32, i8, %struct.bz_stream, i32, i8 }

; Function Attrs: nounwind uwtable
define i32 @BZ2_bzread(ptr noundef %0, ptr noundef %1, i32 noundef %2) #0 {
  %4 = alloca i32, align 4
  %5 = alloca ptr, align 8
  %6 = alloca ptr, align 8
  %7 = alloca i32, align 4
  %8 = alloca i32, align 4
  %9 = alloca i32, align 4
  store ptr %0, ptr %5, align 8
  store ptr %1, ptr %6, align 8
  store i32 %2, ptr %7, align 4
  %10 = load ptr, ptr %5, align 8
  %11 = getelementptr inbounds %struct.bzFile, ptr %10, i32 0, i32 5
  %12 = load i32, ptr %11, align 8
  %13 = icmp eq i32 %12, 4
  br i1 %13, label %14, label %15

14:                                               ; preds = %3
  store i32 0, ptr %4, align 4
  br label %28

15:                                               ; preds = %3
  %16 = load ptr, ptr %5, align 8
  %17 = load ptr, ptr %6, align 8
  %18 = load i32, ptr %7, align 4
  %19 = call i32 @BZ2_bzRead(ptr noundef %8, ptr noundef %16, ptr noundef %17, i32 noundef %18)
  store i32 %19, ptr %9, align 4
  %20 = load i32, ptr %8, align 4
  %21 = icmp eq i32 %20, 0
  br i1 %21, label %25, label %22

22:                                               ; preds = %15
  %23 = load i32, ptr %8, align 4
  %24 = icmp eq i32 %23, 4
  br i1 %24, label %25, label %27

25:                                               ; preds = %22, %15
  %26 = load i32, ptr %9, align 4
  store i32 %26, ptr %4, align 4
  br label %28

27:                                               ; preds = %22
  store i32 -1, ptr %4, align 4
  br label %28

28:                                               ; preds = %27, %25, %14
  %29 = load i32, ptr %4, align 4
  ret i32 %29
}