; Function Attrs: nounwind uwtable
define i32 @BZ2_bzread(ptr noundef %0, ptr noundef %1, i32 noundef %2) local_unnamed_addr #4 {
  %4 = alloca i32, align 4
  %5 = getelementptr inbounds nuw i8, ptr %0, i64 5096
  %6 = load i32, ptr %5, align 8
  %7 = icmp eq i32 %6, 4
  br i1 %7, label %12, label %8

8:                                                ; preds = %3
  %9 = call i32 @BZ2_bzRead(ptr noundef nonnull %4, ptr noundef nonnull %0, ptr noundef %1, i32 noundef %2)
  %10 = load i32, ptr %4, align 4
  %11 = and i32 %10, -5
  %or.cond = icmp eq i32 %11, 0
  %. = select i1 %or.cond, i32 %9, i32 -1
  br label %12

12:                                               ; preds = %8, %3
  %.0 = phi i32 [ 0, %3 ], [ %., %8 ]
  ret i32 %.0
}